target datalayout = "e-m:e-p270:32:32-p271:32:32-p272:64:64-i64:64-i128:128-f80:128-n8:16:32:64-S128"
target triple = "x86_64-unknown-linux-gnu"

%struct.malloc_mutex_s = type { %union.anon }
%union.anon = type { %struct.anon.1 }
%struct.anon.1 = type { %struct.mutex_prof_data_t, %union.pthread_mutex_t, %struct.atomic_b_t }
%struct.mutex_prof_data_t = type { %struct.nstime_t, %struct.nstime_t, i64, i64, i32, %struct.atomic_u32_t, i64, ptr, i64 }
%struct.nstime_t = type { i64 }
%struct.atomic_u32_t = type { i32 }
%union.pthread_mutex_t = type { %struct.__pthread_mutex_s }
%struct.__pthread_mutex_s = type { i32, i32, i32, i32, i32, i16, i16, %struct.__pthread_internal_list }
%struct.__pthread_internal_list = type { ptr, ptr }
%struct.atomic_b_t = type { i8 }
%struct.atomic_zd_t = type { i64 }
%struct.hpa_shard_opts_s = type { i64, i64, i32, i8, i64, i64 }
%struct.sec_opts_s = type { i64, i64, i64, i64, i64 }
%struct.arena_s = type { [2 x %struct.atomic_u_t], %struct.atomic_u_t, ptr, %struct.arena_stats_s, %struct.anon, %struct.anon.0, %struct.malloc_mutex_s, %struct.atomic_u_t, %struct.edata_list_active_t, %struct.malloc_mutex_s, %struct.pa_shard_s, i32, ptr, %struct.nstime_t, [0 x %struct.bin_s] }
%struct.arena_stats_s = type { i64, i64, i64, i64, %struct.atomic_zu_t, i64, i64, i64, i64, i64, i64, %struct.pa_shard_stats_s, i64, i64, [12 x %struct.mutex_prof_data_t], [196 x %struct.arena_stats_large_s], %struct.nstime_t }
%struct.atomic_zu_t = type { i64 }
%struct.pa_shard_stats_s = type { i64, %struct.pac_stats_s }
%struct.pac_stats_s = type { %struct.pac_decay_stats_s, %struct.pac_decay_stats_s, i64, %struct.atomic_zu_t, %struct.atomic_zu_t }
%struct.pac_decay_stats_s = type { %struct.locked_u64_s, %struct.locked_u64_s, %struct.locked_u64_s }
%struct.locked_u64_s = type { %struct.atomic_u64_t }
%struct.atomic_u64_t = type { i64 }
%struct.arena_stats_large_s = type { %struct.locked_u64_s, %struct.locked_u64_s, %struct.locked_u64_s, %struct.locked_u64_s, %struct.locked_u64_s, i64 }
%struct.anon = type { ptr }
%struct.anon.0 = type { ptr }
%struct.atomic_u_t = type { i32 }
%struct.edata_list_active_t = type { %struct.anon.3 }
%struct.anon.3 = type { ptr }
%struct.pa_shard_s = type { ptr, %struct.atomic_zu_t, %struct.atomic_b_t, i8, %struct.pac_s, %struct.sec_s, %struct.hpa_shard_s, %struct.edata_cache_s, i32, ptr, ptr, ptr, ptr }
%struct.pac_s = type { %struct.pai_s, %struct.ecache_s, %struct.ecache_s, %struct.ecache_s, ptr, ptr, ptr, %struct.exp_grow_s, %struct.malloc_mutex_s, %struct.san_bump_alloc_s, %struct.atomic_zu_t, %struct.decay_s, %struct.decay_s, ptr, ptr, %struct.atomic_zu_t }
%struct.pai_s = type { ptr, ptr, ptr, ptr, ptr, ptr, ptr }
%struct.ecache_s = type { %struct.malloc_mutex_s, %struct.eset_s, %struct.eset_s, i32, i32, i8 }
%struct.eset_s = type { [4 x i64], [200 x %struct.eset_bin_s], [200 x %struct.eset_bin_stats_s], %struct.edata_list_inactive_t, %struct.atomic_zu_t, i32 }
%struct.eset_bin_s = type { %struct.edata_heap_t, %struct.edata_cmp_summary_s }
%struct.edata_heap_t = type { %struct.ph_s }
%struct.ph_s = type { ptr, i64 }
%struct.edata_cmp_summary_s = type { i64, i64 }
%struct.eset_bin_stats_s = type { %struct.atomic_zu_t, %struct.atomic_zu_t }
%struct.edata_list_inactive_t = type { %struct.anon.4 }
%struct.anon.4 = type { ptr }
%struct.exp_grow_s = type { i32, i32 }
%struct.san_bump_alloc_s = type { %struct.malloc_mutex_s, ptr }
%struct.decay_s = type { %struct.malloc_mutex_s, i8, %struct.atomic_zd_t, %struct.nstime_t, %struct.nstime_t, i64, %struct.nstime_t, i64, i64, [200 x i64], i64 }
%struct.sec_s = type { %struct.pai_s, ptr, %struct.sec_opts_s, ptr, i32 }
%struct.hpa_shard_s = type { %struct.pai_s, ptr, %struct.malloc_mutex_s, %struct.malloc_mutex_s, ptr, %struct.edata_cache_fast_s, %struct.psset_s, i64, i32, ptr, %struct.hpa_shard_opts_s, i64, %struct.hpa_shard_nonderived_stats_s, %struct.nstime_t }
%struct.edata_cache_fast_s = type { %struct.edata_list_inactive_t, ptr, i8 }
%struct.psset_s = type { [64 x %struct.hpdata_age_heap_t], [1 x i64], %struct.psset_bin_stats_s, %struct.psset_stats_s, %struct.hpdata_empty_list_t, [128 x %struct.hpdata_purge_list_t], [2 x i64], %struct.hpdata_hugify_list_t }
%struct.hpdata_age_heap_t = type { %struct.ph_s }
%struct.psset_bin_stats_s = type { i64, i64, i64 }
%struct.psset_stats_s = type { [64 x [2 x %struct.psset_bin_stats_s]], [2 x %struct.psset_bin_stats_s], [2 x %struct.psset_bin_stats_s] }
%struct.hpdata_empty_list_t = type { %struct.anon.5 }
%struct.anon.5 = type { ptr }
%struct.hpdata_purge_list_t = type { %struct.anon.6 }
%struct.anon.6 = type { ptr }
%struct.hpdata_hugify_list_t = type { %struct.anon.7 }
%struct.anon.7 = type { ptr }
%struct.hpa_shard_nonderived_stats_s = type { i64, i64, i64, i64 }
%struct.edata_cache_s = type { %struct.edata_avail_t, %struct.atomic_zu_t, %struct.malloc_mutex_s, ptr }
%struct.edata_avail_t = type { %struct.ph_s }
%struct.bin_s = type { %struct.malloc_mutex_s, %struct.bin_stats_s, ptr, %struct.edata_heap_t, %struct.edata_list_active_t }
%struct.bin_stats_s = type { i64, i64, i64, i64, i64, i64, i64, i64, i64, i64 }

; Function Attrs: nounwind uwtable
define internal i64 @ecache_npages_get(ptr noundef %ecache) #0 {
entry:
  %ecache.addr = alloca ptr, align 8
  store ptr %ecache, ptr %ecache.addr, align 8
  %0 = load ptr, ptr %ecache.addr, align 8
  %eset = getelementptr inbounds %struct.ecache_s, ptr %0, i32 0, i32 1
  %call = call i64 @eset_npages_get(ptr noundef %eset)
  %1 = load ptr, ptr %ecache.addr, align 8
  %guarded_eset = getelementptr inbounds %struct.ecache_s, ptr %1, i32 0, i32 2
  %call1 = call i64 @eset_npages_get(ptr noundef %guarded_eset)
  %add = add i64 %call, %call1
  ret i64 %add
}

; Function Attrs: nounwind uwtable
define internal zeroext i1 @pa_shard_dont_decay_muzzy(ptr noundef %shard) #0 {
entry:
  %shard.addr = alloca ptr, align 8
  store ptr %shard, ptr %shard.addr, align 8
  %0 = load ptr, ptr %shard.addr, align 8
  %pac = getelementptr inbounds %struct.pa_shard_s, ptr %0, i32 0, i32 4
  %ecache_muzzy = getelementptr inbounds %struct.pac_s, ptr %pac, i32 0, i32 2
  %call = call i64 @ecache_npages_get(ptr noundef %ecache_muzzy)
  %cmp = icmp eq i64 %call, 0
  br i1 %cmp, label %land.rhs, label %land.end

land.rhs:                                         ; preds = %entry
  %1 = load ptr, ptr %shard.addr, align 8
  %pac1 = getelementptr inbounds %struct.pa_shard_s, ptr %1, i32 0, i32 4
  %call2 = call i64 @pac_decay_ms_get(ptr noundef %pac1, i32 noundef 2)
  %cmp3 = icmp sle i64 %call2, 0
  br label %land.end

land.end:                                         ; preds = %land.rhs, %entry
  %2 = phi i1 [ false, %entry ], [ %cmp3, %land.rhs ]
  ret i1 %2
}

; Function Attrs: nounwind uwtable
define internal zeroext i1 @arena_decay_muzzy(ptr noundef %tsdn, ptr noundef %arena, i1 noundef zeroext %is_background_thread, i1 noundef zeroext %all) #0 {
entry:
  %retval = alloca i1, align 1
  %tsdn.addr = alloca ptr, align 8
  %arena.addr = alloca ptr, align 8
  %is_background_thread.addr = alloca i8, align 1
  %all.addr = alloca i8, align 1
  store ptr %tsdn, ptr %tsdn.addr, align 8
  store ptr %arena, ptr %arena.addr, align 8
  %frombool = zext i1 %is_background_thread to i8
  store i8 %frombool, ptr %is_background_thread.addr, align 1
  %frombool1 = zext i1 %all to i8
  store i8 %frombool1, ptr %all.addr, align 1
  %0 = load ptr, ptr %arena.addr, align 8
  %pa_shard = getelementptr inbounds %struct.arena_s, ptr %0, i32 0, i32 10
  %call = call zeroext i1 @pa_shard_dont_decay_muzzy(ptr noundef %pa_shard)
  br i1 %call, label %if.then, label %if.end

if.then:                                          ; preds = %entry
  store i1 false, ptr %retval, align 1
  br label %return

if.end:                                           ; preds = %entry
  %1 = load ptr, ptr %tsdn.addr, align 8
  %2 = load ptr, ptr %arena.addr, align 8
  %3 = load ptr, ptr %arena.addr, align 8
  %pa_shard2 = getelementptr inbounds %struct.arena_s, ptr %3, i32 0, i32 10
  %pac = getelementptr inbounds %struct.pa_shard_s, ptr %pa_shard2, i32 0, i32 4
  %decay_muzzy = getelementptr inbounds %struct.pac_s, ptr %pac, i32 0, i32 12
  %4 = load ptr, ptr %arena.addr, align 8
  %pa_shard3 = getelementptr inbounds %struct.arena_s, ptr %4, i32 0, i32 10
  %pac4 = getelementptr inbounds %struct.pa_shard_s, ptr %pa_shard3, i32 0, i32 4
  %stats = getelementptr inbounds %struct.pac_s, ptr %pac4, i32 0, i32 14
  %5 = load ptr, ptr %stats, align 8
  %decay_muzzy5 = getelementptr inbounds %struct.pac_stats_s, ptr %5, i32 0, i32 1
  %6 = load ptr, ptr %arena.addr, align 8
  %pa_shard6 = getelementptr inbounds %struct.arena_s, ptr %6, i32 0, i32 10
  %pac7 = getelementptr inbounds %struct.pa_shard_s, ptr %pa_shard6, i32 0, i32 4
  %ecache_muzzy = getelementptr inbounds %struct.pac_s, ptr %pac7, i32 0, i32 2
  %7 = load i8, ptr %is_background_thread.addr, align 1
  %tobool = trunc i8 %7 to i1
  %8 = load i8, ptr %all.addr, align 1
  %tobool8 = trunc i8 %8 to i1
  %call9 = call zeroext i1 @arena_decay_impl(ptr noundef %1, ptr noundef %2, ptr noundef %decay_muzzy, ptr noundef %decay_muzzy5, ptr noundef %ecache_muzzy, i1 noundef zeroext %tobool, i1 noundef zeroext %tobool8)
  store i1 %call9, ptr %retval, align 1
  br label %return

return:                                           ; preds = %if.end, %if.then
  %9 = load i1, ptr %retval, align 1
  ret i1 %9
}

; Function Attrs: nounwind uwtable
define internal zeroext i1 @arena_decay_dirty(ptr noundef %tsdn, ptr noundef %arena, i1 noundef zeroext %is_background_thread, i1 noundef zeroext %all) #0 {
entry:
  %tsdn.addr = alloca ptr, align 8
  %arena.addr = alloca ptr, align 8
  %is_background_thread.addr = alloca i8, align 1
  %all.addr = alloca i8, align 1
  store ptr %tsdn, ptr %tsdn.addr, align 8
  store ptr %arena, ptr %arena.addr, align 8
  %frombool = zext i1 %is_background_thread to i8
  store i8 %frombool, ptr %is_background_thread.addr, align 1
  %frombool1 = zext i1 %all to i8
  store i8 %frombool1, ptr %all.addr, align 1
  %0 = load ptr, ptr %tsdn.addr, align 8
  %1 = load ptr, ptr %arena.addr, align 8
  %2 = load ptr, ptr %arena.addr, align 8
  %pa_shard = getelementptr inbounds %struct.arena_s, ptr %2, i32 0, i32 10
  %pac = getelementptr inbounds %struct.pa_shard_s, ptr %pa_shard, i32 0, i32 4
  %decay_dirty = getelementptr inbounds %struct.pac_s, ptr %pac, i32 0, i32 11
  %3 = load ptr, ptr %arena.addr, align 8
  %pa_shard2 = getelementptr inbounds %struct.arena_s, ptr %3, i32 0, i32 10
  %pac3 = getelementptr inbounds %struct.pa_shard_s, ptr %pa_shard2, i32 0, i32 4
  %stats = getelementptr inbounds %struct.pac_s, ptr %pac3, i32 0, i32 14
  %4 = load ptr, ptr %stats, align 8
  %decay_dirty4 = getelementptr inbounds %struct.pac_stats_s, ptr %4, i32 0, i32 0
  %5 = load ptr, ptr %arena.addr, align 8
  %pa_shard5 = getelementptr inbounds %struct.arena_s, ptr %5, i32 0, i32 10
  %pac6 = getelementptr inbounds %struct.pa_shard_s, ptr %pa_shard5, i32 0, i32 4
  %ecache_dirty = getelementptr inbounds %struct.pac_s, ptr %pac6, i32 0, i32 1
  %6 = load i8, ptr %is_background_thread.addr, align 1
  %tobool = trunc i8 %6 to i1
  %7 = load i8, ptr %all.addr, align 1
  %tobool7 = trunc i8 %7 to i1
  %call = call zeroext i1 @arena_decay_impl(ptr noundef %0, ptr noundef %1, ptr noundef %decay_dirty, ptr noundef %decay_dirty4, ptr noundef %ecache_dirty, i1 noundef zeroext %tobool, i1 noundef zeroext %tobool7)
  ret i1 %call
}

; Function Attrs: nounwind uwtable
define hidden void @arena_decay(ptr noundef %tsdn, ptr noundef %arena, i1 noundef zeroext %is_background_thread, i1 noundef zeroext %all) #0 {
entry:
  %tsdn.addr = alloca ptr, align 8
  %arena.addr = alloca ptr, align 8
  %is_background_thread.addr = alloca i8, align 1
  %all.addr = alloca i8, align 1
  store ptr %tsdn, ptr %tsdn.addr, align 8
  store ptr %arena, ptr %arena.addr, align 8
  %frombool = zext i1 %is_background_thread to i8
  store i8 %frombool, ptr %is_background_thread.addr, align 1
  %frombool1 = zext i1 %all to i8
  store i8 %frombool1, ptr %all.addr, align 1
  %0 = load i8, ptr %all.addr, align 1
  %tobool = trunc i8 %0 to i1
  br i1 %tobool, label %if.then, label %if.end

if.then:                                          ; preds = %entry
  %1 = load ptr, ptr %tsdn.addr, align 8
  %2 = load ptr, ptr %arena.addr, align 8
  %pa_shard = getelementptr inbounds %struct.arena_s, ptr %2, i32 0, i32 10
  %hpa_sec = getelementptr inbounds %struct.pa_shard_s, ptr %pa_shard, i32 0, i32 5
  call void @sec_flush(ptr noundef %1, ptr noundef %hpa_sec)
  br label %if.end

if.end:                                           ; preds = %if.then, %entry
  %3 = load ptr, ptr %tsdn.addr, align 8
  %4 = load ptr, ptr %arena.addr, align 8
  %5 = load i8, ptr %is_background_thread.addr, align 1
  %tobool2 = trunc i8 %5 to i1
  %6 = load i8, ptr %all.addr, align 1
  %tobool3 = trunc i8 %6 to i1
  %call = call zeroext i1 @arena_decay_dirty(ptr noundef %3, ptr noundef %4, i1 noundef zeroext %tobool2, i1 noundef zeroext %tobool3)
  br i1 %call, label %if.then4, label %if.end5

if.then4:                                         ; preds = %if.end
  br label %return

if.end5:                                          ; preds = %if.end
  %7 = load ptr, ptr %tsdn.addr, align 8
  %8 = load ptr, ptr %arena.addr, align 8
  %9 = load i8, ptr %is_background_thread.addr, align 1
  %tobool6 = trunc i8 %9 to i1
  %10 = load i8, ptr %all.addr, align 1
  %tobool7 = trunc i8 %10 to i1
  %call8 = call zeroext i1 @arena_decay_muzzy(ptr noundef %7, ptr noundef %8, i1 noundef zeroext %tobool6, i1 noundef zeroext %tobool7)
  br label %return

return:                                           ; preds = %if.end5, %if.then4
  ret void
}