; Function Attrs: nounwind uwtable
define hidden void @arena_decay(ptr noundef %tsdn, ptr noundef %arena, i1 noundef zeroext %is_background_thread, i1 noundef zeroext %all) local_unnamed_addr #0 {
entry:
  br i1 %all, label %if.then, label %if.end

if.then:                                          ; preds = %entry
  %hpa_sec = getelementptr inbounds i8, ptr %arena, i64 72912
  tail call void @sec_flush(ptr noundef %tsdn, ptr noundef nonnull %hpa_sec) #15
  br label %if.end

if.end:                                           ; preds = %if.then, %entry
  %decay_dirty.i = getelementptr inbounds i8, ptr %arena, i64 69320
  %stats.i = getelementptr inbounds i8, ptr %arena, i64 72896
  %0 = load ptr, ptr %stats.i, align 8
  %ecache_dirty.i = getelementptr inbounds i8, ptr %arena, i64 10728
  %call.i = tail call fastcc noundef zeroext i1 @arena_decay_impl(ptr noundef %tsdn, ptr noundef %arena, ptr noundef nonnull %decay_dirty.i, ptr noundef %0, ptr noundef nonnull %ecache_dirty.i, i1 noundef zeroext %is_background_thread, i1 noundef zeroext %all)
  br i1 %call.i, label %return, label %if.end5

if.end5:                                          ; preds = %if.end
  %eset.i.i.i = getelementptr inbounds i8, ptr %arena, i64 30280
  %call.i.i.i = tail call i64 @eset_npages_get(ptr noundef nonnull %eset.i.i.i) #15
  %guarded_eset.i.i.i = getelementptr inbounds i8, ptr %arena, i64 39936
  %call1.i.i.i = tail call i64 @eset_npages_get(ptr noundef nonnull %guarded_eset.i.i.i) #15
  %add.i.i.i = sub i64 0, %call.i.i.i
  %cmp.i.i = icmp eq i64 %call1.i.i.i, %add.i.i.i
  br i1 %cmp.i.i, label %pa_shard_dont_decay_muzzy.exit.i, label %if.end.i

pa_shard_dont_decay_muzzy.exit.i:                 ; preds = %if.end5
  %pac.i.i = getelementptr inbounds i8, ptr %arena, i64 10672
  %call2.i.i = tail call i64 @pac_decay_ms_get(ptr noundef nonnull %pac.i.i, i32 noundef 2) #15
  %cmp3.i.i = icmp slt i64 %call2.i.i, 1
  br i1 %cmp3.i.i, label %return, label %if.end.i

if.end.i:                                         ; preds = %pa_shard_dont_decay_muzzy.exit.i, %if.end5
  %decay_muzzy.i = getelementptr inbounds i8, ptr %arena, i64 71104
  %1 = load ptr, ptr %stats.i, align 8
  %decay_muzzy5.i = getelementptr inbounds i8, ptr %1, i64 24
  %ecache_muzzy.i = getelementptr inbounds i8, ptr %arena, i64 30168
  %call9.i = tail call fastcc zeroext i1 @arena_decay_impl(ptr noundef %tsdn, ptr noundef nonnull %arena, ptr noundef nonnull %decay_muzzy.i, ptr noundef nonnull %decay_muzzy5.i, ptr noundef nonnull %ecache_muzzy.i, i1 noundef zeroext %is_background_thread, i1 noundef zeroext %all)
  br label %return

return:                                           ; preds = %if.end.i, %pa_shard_dont_decay_muzzy.exit.i, %if.end
  ret void
}